; Function Attrs: mustprogress uwtable
define dso_local void @_ZN6google8protobuf20ConformanceTestSuite21AddExpectedFailedTestERKNSt7__cxx1112basic_stringIcSt11char_traitsIcESaIcEEE(ptr noundef nonnull align 8 dereferenceable(400) %this, ptr noundef nonnull align 8 dereferenceable(32) %test_name) local_unnamed_addr #3 align 2 {
entry:
  %__an.i.i = alloca %"struct.std::_Rb_tree<std::__cxx11::basic_string<char>, std::__cxx11::basic_string<char>, std::_Identity<std::__cxx11::basic_string<char>>, std::less<std::__cxx11::basic_string<char>>>::_Alloc_node", align 8
  %expected_to_fail_ = getelementptr inbounds i8, ptr %this, i64 160
  call void @llvm.lifetime.start.p0(i64 8, ptr nonnull %__an.i.i)
  %call2.i.i = tail call { ptr, ptr } @_ZNSt8_Rb_treeINSt7__cxx1112basic_stringIcSt11char_traitsIcESaIcEEES5_St9_IdentityIS5_ESt4lessIS5_ESaIS5_EE24_M_get_insert_unique_posERKS5_(ptr noundef nonnull align 8 dereferenceable(48) %expected_to_fail_, ptr noundef nonnull align 8 dereferenceable(32) %test_name)
  %0 = extractvalue { ptr, ptr } %call2.i.i, 1
  %tobool.not.i.i = icmp eq ptr %0, null
  br i1 %tobool.not.i.i, label %_ZNSt3setINSt7__cxx1112basic_stringIcSt11char_traitsIcESaIcEEESt4lessIS5_ESaIS5_EE6insertERKS5_.exit, label %if.then.i.i

if.then.i.i:                                      ; preds = %entry
  %1 = extractvalue { ptr, ptr } %call2.i.i, 0
  store ptr %expected_to_fail_, ptr %__an.i.i, align 8
  %call5.i.i = call ptr @_ZNSt8_Rb_treeINSt7__cxx1112basic_stringIcSt11char_traitsIcESaIcEEES5_St9_IdentityIS5_ESt4lessIS5_ESaIS5_EE10_M_insert_IRKS5_NSB_11_Alloc_nodeEEESt17_Rb_tree_iteratorIS5_EPSt18_Rb_tree_node_baseSJ_OT_RT0_(ptr noundef nonnull align 8 dereferenceable(48) %expected_to_fail_, ptr noundef %1, ptr noundef nonnull %0, ptr noundef nonnull align 8 dereferenceable(32) %test_name, ptr noundef nonnull align 8 dereferenceable(8) %__an.i.i)
  br label %_ZNSt3setINSt7__cxx1112basic_stringIcSt11char_traitsIcESaIcEEESt4lessIS5_ESaIS5_EE6insertERKS5_.exit

_ZNSt3setINSt7__cxx1112basic_stringIcSt11char_traitsIcESaIcEEESt4lessIS5_ESaIS5_EE6insertERKS5_.exit: ; preds = %entry, %if.then.i.i
  call void @llvm.lifetime.end.p0(i64 8, ptr nonnull %__an.i.i)
  ret void
}